; Function Attrs: mustprogress uwtable
define noundef i64 @_ZNK7mitsuba10FileStream4tellEv(ptr noundef nonnull align 8 dereferenceable(64) %0) unnamed_addr #0 align 2 personality ptr @__gxx_personality_v0 {
  %2 = alloca %"class.std::__1::basic_string", align 8
  %3 = alloca %"class.std::__1::basic_string", align 8
  %4 = getelementptr inbounds i8, ptr %0, i64 56
  %5 = load ptr, ptr %4, align 8
  %6 = tail call { i64, i64 } @_ZNSt3__113basic_istreamIcNS_11char_traitsIcEEE5tellgEv(ptr noundef nonnull align 8 dereferenceable(16) %5)
  %7 = extractvalue { i64, i64 } %6, 1
  %8 = icmp eq i64 %7, -1
  br i1 %8, label %9, label %19

9:                                                ; preds = %1
  %10 = load ptr, ptr @_ZN7mitsuba10FileStream7m_classE, align 8
  %11 = getelementptr inbounds i8, ptr %0, i64 24
  call void @_ZNK7mitsuba10filesystem4path6stringEv(ptr dead_on_unwind nonnull writable sret(%"class.std::__1::basic_string") align 8 %3, ptr noundef nonnull align 8 dereferenceable(25) %11)
  invoke void @_ZN10tinyformat6formatIJNSt3__112basic_stringIcNS1_11char_traitsIcEENS1_9allocatorIcEEEEEEES7_PKcDpRKT_(ptr dead_on_unwind nonnull writable sret(%"class.std::__1::basic_string") align 8 %2, ptr noundef nonnull @.str.7, ptr noundef nonnull align 8 dereferenceable(24) %3)
          to label %12 unwind label %14

12:                                               ; preds = %9
  invoke void @_ZN7mitsuba6detail5ThrowENS_8LogLevelEPKNS_5ClassEPKciRKNSt3__112basic_stringIcNS7_11char_traitsIcEENS7_9allocatorIcEEEE(i32 noundef 400, ptr noundef %10, ptr noundef nonnull @.str, i32 noundef 114, ptr noundef nonnull align 8 dereferenceable(24) %2) #21
          to label %13 unwind label %16

13:                                               ; preds = %12
  unreachable

14:                                               ; preds = %9
  %15 = landingpad { ptr, i32 }
          cleanup
  br label %18

16:                                               ; preds = %12
  %17 = landingpad { ptr, i32 }
          cleanup
  call void @_ZNSt3__112basic_stringIcNS_11char_traitsIcEENS_9allocatorIcEEED1Ev(ptr noundef nonnull align 8 dereferenceable(24) %2) #19
  br label %18

18:                                               ; preds = %16, %14
  %.pn = phi { ptr, i32 } [ %17, %16 ], [ %15, %14 ]
  call void @_ZNSt3__112basic_stringIcNS_11char_traitsIcEENS_9allocatorIcEEED1Ev(ptr noundef nonnull align 8 dereferenceable(24) %3) #19
  resume { ptr, i32 } %.pn

19:                                               ; preds = %1
  ret i64 %7
}